target datalayout = "e-m:e-p270:32:32-p271:32:32-p272:64:64-i64:64-i128:128-f80:128-n8:16:32:64-S128"
target triple = "x86_64-pc-linux-gnu"

%class.BitMap = type { ptr, i64 }

; Function Attrs: mustprogress nounwind uwtable
define linkonce_odr hidden noundef ptr @_ZN6BitMap3mapEv(ptr noundef nonnull align 8 dereferenceable(16) %0) #1 comdat align 2 {
  %2 = alloca ptr, align 8
  store ptr %0, ptr %2, align 8
  %3 = load ptr, ptr %2, align 8
  %4 = getelementptr inbounds %class.BitMap, ptr %3, i32 0, i32 0
  %5 = load ptr, ptr %4, align 8
  ret ptr %5
}

; Function Attrs: mustprogress nounwind uwtable
define linkonce_odr hidden noundef i64 @_ZN6BitMap11bit_in_wordEm(i64 noundef %0) #1 comdat align 2 {
  %2 = alloca i64, align 8
  store i64 %0, ptr %2, align 8
  %3 = load i64, ptr %2, align 8
  %4 = and i64 %3, 63
  ret i64 %4
}

; Function Attrs: mustprogress nounwind uwtable
define linkonce_odr hidden noundef i64 @_ZN6BitMap8bit_maskEm(i64 noundef %0) #1 comdat align 2 {
  %2 = alloca i64, align 8
  store i64 %0, ptr %2, align 8
  %3 = load i64, ptr %2, align 8
  %4 = call noundef i64 @_ZN6BitMap11bit_in_wordEm(i64 noundef %3)
  %5 = shl i64 1, %4
  ret i64 %5
}

; Function Attrs: mustprogress nounwind uwtable
define linkonce_odr hidden void @_ZN6BitMap20clear_range_of_wordsEPmmm(ptr noundef %0, i64 noundef %1, i64 noundef %2) #1 comdat align 2 {
  %4 = alloca ptr, align 8
  %5 = alloca i64, align 8
  %6 = alloca i64, align 8
  %7 = alloca i64, align 8
  store ptr %0, ptr %4, align 8
  store i64 %1, ptr %5, align 8
  store i64 %2, ptr %6, align 8
  %8 = load i64, ptr %5, align 8
  store i64 %8, ptr %7, align 8
  br label %9

9:                                                ; preds = %17, %3
  %10 = load i64, ptr %7, align 8
  %11 = load i64, ptr %6, align 8
  %12 = icmp ult i64 %10, %11
  br i1 %12, label %13, label %20

13:                                               ; preds = %9
  %14 = load ptr, ptr %4, align 8
  %15 = load i64, ptr %7, align 8
  %16 = getelementptr inbounds i64, ptr %14, i64 %15
  store i64 0, ptr %16, align 8
  br label %17

17:                                               ; preds = %13
  %18 = load i64, ptr %7, align 8
  %19 = add i64 %18, 1
  store i64 %19, ptr %7, align 8
  br label %9, !llvm.loop !24

20:                                               ; preds = %9
  ret void
}

; Function Attrs: mustprogress nounwind uwtable
define linkonce_odr hidden noundef ptr @_ZN6BitMap9word_addrEm(ptr noundef nonnull align 8 dereferenceable(16) %0, i64 noundef %1) #1 comdat align 2 {
  %3 = alloca ptr, align 8
  %4 = alloca i64, align 8
  store ptr %0, ptr %3, align 8
  store i64 %1, ptr %4, align 8
  %5 = load ptr, ptr %3, align 8
  %6 = call noundef ptr @_ZN6BitMap3mapEv(ptr noundef nonnull align 8 dereferenceable(16) %5)
  %7 = load i64, ptr %4, align 8
  %8 = call noundef i64 @_ZNK6BitMap19to_words_align_downEm(ptr noundef nonnull align 8 dereferenceable(16) %5, i64 noundef %7)
  %9 = getelementptr inbounds i64, ptr %6, i64 %8
  ret ptr %9
}

; Function Attrs: mustprogress nounwind uwtable
define linkonce_odr hidden noundef i64 @_ZNK6BitMap27inverted_bit_mask_for_rangeEmm(ptr noundef nonnull align 8 dereferenceable(16) %0, i64 noundef %1, i64 noundef %2) #1 comdat align 2 {
  %4 = alloca ptr, align 8
  %5 = alloca i64, align 8
  %6 = alloca i64, align 8
  %7 = alloca i64, align 8
  store ptr %0, ptr %4, align 8
  store i64 %1, ptr %5, align 8
  store i64 %2, ptr %6, align 8
  %8 = load i64, ptr %5, align 8
  %9 = call noundef i64 @_ZN6BitMap8bit_maskEm(i64 noundef %8)
  %10 = sub i64 %9, 1
  store i64 %10, ptr %7, align 8
  %11 = load i64, ptr %6, align 8
  %12 = call noundef i64 @_ZN6BitMap11bit_in_wordEm(i64 noundef %11)
  %13 = icmp ne i64 %12, 0
  br i1 %13, label %14, label %21

14:                                               ; preds = %3
  %15 = load i64, ptr %6, align 8
  %16 = call noundef i64 @_ZN6BitMap8bit_maskEm(i64 noundef %15)
  %17 = sub i64 %16, 1
  %18 = xor i64 %17, -1
  %19 = load i64, ptr %7, align 8
  %20 = or i64 %19, %18
  store i64 %20, ptr %7, align 8
  br label %21

21:                                               ; preds = %14, %3
  %22 = load i64, ptr %7, align 8
  ret i64 %22
}

; Function Attrs: mustprogress nounwind uwtable
define linkonce_odr hidden noundef i64 @_ZN6BitMap23raw_to_words_align_downEm(i64 noundef %0) #1 comdat align 2 {
  %2 = alloca i64, align 8
  store i64 %0, ptr %2, align 8
  %3 = load i64, ptr %2, align 8
  %4 = lshr i64 %3, 6
  ret i64 %4
}

; Function Attrs: mustprogress nounwind uwtable
define linkonce_odr hidden noundef i64 @_ZN6BitMap21raw_to_words_align_upEm(i64 noundef %0) #1 comdat align 2 {
  %2 = alloca i64, align 8
  store i64 %0, ptr %2, align 8
  %3 = load i64, ptr %2, align 8
  %4 = add i64 %3, 63
  %5 = call noundef i64 @_ZN6BitMap23raw_to_words_align_downEm(i64 noundef %4)
  ret i64 %5
}

; Function Attrs: mustprogress nounwind uwtable
define linkonce_odr hidden void @_ZNK6BitMap12verify_limitEm(ptr noundef nonnull align 8 dereferenceable(16) %0, i64 noundef %1) #1 comdat align 2 {
  %3 = alloca ptr, align 8
  %4 = alloca i64, align 8
  store ptr %0, ptr %3, align 8
  store i64 %1, ptr %4, align 8
  ret void
}

; Function Attrs: mustprogress nounwind uwtable
define linkonce_odr hidden noundef i64 @_Z4MIN2ImET_S0_S0_(i64 noundef %0, i64 noundef %1) #1 comdat {
  %3 = alloca i64, align 8
  %4 = alloca i64, align 8
  store i64 %0, ptr %3, align 8
  store i64 %1, ptr %4, align 8
  %5 = load i64, ptr %3, align 8
  %6 = load i64, ptr %4, align 8
  %7 = icmp ult i64 %5, %6
  br i1 %7, label %8, label %10

8:                                                ; preds = %2
  %9 = load i64, ptr %3, align 8
  br label %12

10:                                               ; preds = %2
  %11 = load i64, ptr %4, align 8
  br label %12

12:                                               ; preds = %10, %8
  %13 = phi i64 [ %9, %8 ], [ %11, %10 ]
  ret i64 %13
}

; Function Attrs: mustprogress nounwind uwtable
define linkonce_odr hidden void @_ZN6BitMap20clear_range_of_wordsEmm(ptr noundef nonnull align 8 dereferenceable(16) %0, i64 noundef %1, i64 noundef %2) #1 comdat align 2 {
  %4 = alloca ptr, align 8
  %5 = alloca i64, align 8
  %6 = alloca i64, align 8
  store ptr %0, ptr %4, align 8
  store i64 %1, ptr %5, align 8
  store i64 %2, ptr %6, align 8
  %7 = load ptr, ptr %4, align 8
  %8 = getelementptr inbounds %class.BitMap, ptr %7, i32 0, i32 0
  %9 = load ptr, ptr %8, align 8
  %10 = load i64, ptr %5, align 8
  %11 = load i64, ptr %6, align 8
  call void @_ZN6BitMap20clear_range_of_wordsEPmmm(ptr noundef %9, i64 noundef %10, i64 noundef %11)
  ret void
}

; Function Attrs: mustprogress nounwind uwtable
define hidden void @_ZN6BitMap23clear_range_within_wordEmm(ptr noundef nonnull align 8 dereferenceable(16) %0, i64 noundef %1, i64 noundef %2) #1 align 2 {
  %4 = alloca ptr, align 8
  %5 = alloca i64, align 8
  %6 = alloca i64, align 8
  %7 = alloca i64, align 8
  store ptr %0, ptr %4, align 8
  store i64 %1, ptr %5, align 8
  store i64 %2, ptr %6, align 8
  %8 = load ptr, ptr %4, align 8
  %9 = load i64, ptr %5, align 8
  %10 = load i64, ptr %6, align 8
  %11 = icmp ne i64 %9, %10
  br i1 %11, label %12, label %21

12:                                               ; preds = %3
  %13 = load i64, ptr %5, align 8
  %14 = load i64, ptr %6, align 8
  %15 = call noundef i64 @_ZNK6BitMap27inverted_bit_mask_for_rangeEmm(ptr noundef nonnull align 8 dereferenceable(16) %8, i64 noundef %13, i64 noundef %14)
  store i64 %15, ptr %7, align 8
  %16 = load i64, ptr %7, align 8
  %17 = load i64, ptr %5, align 8
  %18 = call noundef ptr @_ZN6BitMap9word_addrEm(ptr noundef nonnull align 8 dereferenceable(16) %8, i64 noundef %17)
  %19 = load i64, ptr %18, align 8
  %20 = and i64 %19, %16
  store i64 %20, ptr %18, align 8
  br label %21

21:                                               ; preds = %12, %3
  ret void
}

; Function Attrs: mustprogress nounwind uwtable
define linkonce_odr hidden noundef i64 @_ZN6BitMap9bit_indexEm(i64 noundef %0) #1 comdat align 2 {
  %2 = alloca i64, align 8
  store i64 %0, ptr %2, align 8
  %3 = load i64, ptr %2, align 8
  %4 = shl i64 %3, 6
  ret i64 %4
}

; Function Attrs: mustprogress nounwind uwtable
define linkonce_odr hidden noundef i64 @_ZNK6BitMap19to_words_align_downEm(ptr noundef nonnull align 8 dereferenceable(16) %0, i64 noundef %1) #1 comdat align 2 {
  %3 = alloca ptr, align 8
  %4 = alloca i64, align 8
  store ptr %0, ptr %3, align 8
  store i64 %1, ptr %4, align 8
  %5 = load ptr, ptr %3, align 8
  %6 = load i64, ptr %4, align 8
  call void @_ZNK6BitMap12verify_limitEm(ptr noundef nonnull align 8 dereferenceable(16) %5, i64 noundef %6)
  %7 = load i64, ptr %4, align 8
  %8 = call noundef i64 @_ZN6BitMap23raw_to_words_align_downEm(i64 noundef %7)
  ret i64 %8
}

; Function Attrs: mustprogress nounwind uwtable
define linkonce_odr hidden noundef i64 @_ZNK6BitMap17to_words_align_upEm(ptr noundef nonnull align 8 dereferenceable(16) %0, i64 noundef %1) #1 comdat align 2 {
  %3 = alloca ptr, align 8
  %4 = alloca i64, align 8
  store ptr %0, ptr %3, align 8
  store i64 %1, ptr %4, align 8
  %5 = load ptr, ptr %3, align 8
  %6 = load i64, ptr %4, align 8
  call void @_ZNK6BitMap12verify_limitEm(ptr noundef nonnull align 8 dereferenceable(16) %5, i64 noundef %6)
  %7 = load i64, ptr %4, align 8
  %8 = call noundef i64 @_ZN6BitMap21raw_to_words_align_upEm(i64 noundef %7)
  ret i64 %8
}

; Function Attrs: mustprogress nounwind uwtable
define linkonce_odr hidden void @_ZNK6BitMap12verify_rangeEmm(ptr noundef nonnull align 8 dereferenceable(16) %0, i64 noundef %1, i64 noundef %2) #1 comdat align 2 {
  %4 = alloca ptr, align 8
  %5 = alloca i64, align 8
  %6 = alloca i64, align 8
  store ptr %0, ptr %4, align 8
  store i64 %1, ptr %5, align 8
  store i64 %2, ptr %6, align 8
  ret void
}

; Function Attrs: mustprogress nounwind uwtable
define hidden void @_ZN6BitMap11clear_rangeEmm(ptr noundef nonnull align 8 dereferenceable(16) %0, i64 noundef %1, i64 noundef %2) #1 align 2 {
  %4 = alloca ptr, align 8
  %5 = alloca i64, align 8
  %6 = alloca i64, align 8
  %7 = alloca i64, align 8
  %8 = alloca i64, align 8
  %9 = alloca i64, align 8
  store ptr %0, ptr %4, align 8
  store i64 %1, ptr %5, align 8
  store i64 %2, ptr %6, align 8
  %10 = load ptr, ptr %4, align 8
  %11 = load i64, ptr %5, align 8
  %12 = load i64, ptr %6, align 8
  call void @_ZNK6BitMap12verify_rangeEmm(ptr noundef nonnull align 8 dereferenceable(16) %10, i64 noundef %11, i64 noundef %12)
  %13 = load i64, ptr %5, align 8
  %14 = call noundef i64 @_ZNK6BitMap17to_words_align_upEm(ptr noundef nonnull align 8 dereferenceable(16) %10, i64 noundef %13)
  store i64 %14, ptr %7, align 8
  %15 = load i64, ptr %6, align 8
  %16 = call noundef i64 @_ZNK6BitMap19to_words_align_downEm(ptr noundef nonnull align 8 dereferenceable(16) %10, i64 noundef %15)
  store i64 %16, ptr %8, align 8
  %17 = load i64, ptr %7, align 8
  %18 = load i64, ptr %8, align 8
  %19 = icmp ult i64 %17, %18
  br i1 %19, label %20, label %29

20:                                               ; preds = %3
  %21 = load i64, ptr %5, align 8
  %22 = load i64, ptr %7, align 8
  %23 = call noundef i64 @_ZN6BitMap9bit_indexEm(i64 noundef %22)
  call void @_ZN6BitMap23clear_range_within_wordEmm(ptr noundef nonnull align 8 dereferenceable(16) %10, i64 noundef %21, i64 noundef %23)
  %24 = load i64, ptr %7, align 8
  %25 = load i64, ptr %8, align 8
  call void @_ZN6BitMap20clear_range_of_wordsEmm(ptr noundef nonnull align 8 dereferenceable(16) %10, i64 noundef %24, i64 noundef %25)
  %26 = load i64, ptr %8, align 8
  %27 = call noundef i64 @_ZN6BitMap9bit_indexEm(i64 noundef %26)
  %28 = load i64, ptr %6, align 8
  call void @_ZN6BitMap23clear_range_within_wordEmm(ptr noundef nonnull align 8 dereferenceable(16) %10, i64 noundef %27, i64 noundef %28)
  br label %38

29:                                               ; preds = %3
  %30 = load i64, ptr %7, align 8
  %31 = call noundef i64 @_ZN6BitMap9bit_indexEm(i64 noundef %30)
  %32 = load i64, ptr %6, align 8
  %33 = call noundef i64 @_Z4MIN2ImET_S0_S0_(i64 noundef %31, i64 noundef %32)
  store i64 %33, ptr %9, align 8
  %34 = load i64, ptr %5, align 8
  %35 = load i64, ptr %9, align 8
  call void @_ZN6BitMap23clear_range_within_wordEmm(ptr noundef nonnull align 8 dereferenceable(16) %10, i64 noundef %34, i64 noundef %35)
  %36 = load i64, ptr %9, align 8
  %37 = load i64, ptr %6, align 8
  call void @_ZN6BitMap23clear_range_within_wordEmm(ptr noundef nonnull align 8 dereferenceable(16) %10, i64 noundef %36, i64 noundef %37)
  br label %38

38:                                               ; preds = %29, %20
  ret void
}