; Function Attrs: mustprogress nofree norecurse nosync nounwind willreturn memory(readwrite, inaccessiblemem: none) uwtable
define hidden void @_ZN6BitMap11clear_rangeEmm(ptr nocapture noundef nonnull readonly align 8 dereferenceable(16) %0, i64 noundef %1, i64 noundef %2) local_unnamed_addr #2 align 2 {
  %4 = add i64 %1, 63
  %5 = lshr i64 %4, 6
  %6 = lshr i64 %2, 6
  %7 = icmp ult i64 %5, %6
  %8 = and i64 %4, -64
  br i1 %7, label %9, label %26

9:                                                ; preds = %3
  %.not.i = icmp eq i64 %8, %1
  br i1 %.not.i, label %_ZN6BitMap20clear_range_of_wordsEmm.exit, label %10

10:                                               ; preds = %9
  %11 = and i64 %1, 63
  %notmask.i.i = shl nsw i64 -1, %11
  %12 = xor i64 %notmask.i.i, -1
  %13 = load ptr, ptr %0, align 8
  %14 = lshr i64 %1, 6
  %15 = getelementptr inbounds i64, ptr %13, i64 %14
  %16 = load i64, ptr %15, align 8
  %17 = and i64 %16, %12
  store i64 %17, ptr %15, align 8
  br label %_ZN6BitMap20clear_range_of_wordsEmm.exit

_ZN6BitMap20clear_range_of_wordsEmm.exit:         ; preds = %9, %10
  %18 = load ptr, ptr %0, align 8
  %19 = shl nuw nsw i64 %5, 3
  %scevgep.i.i = getelementptr i8, ptr %18, i64 %19
  %20 = sub nsw i64 %6, %5
  %21 = shl nsw i64 %20, 3
  tail call void @llvm.memset.p0.i64(ptr align 8 %scevgep.i.i, i8 0, i64 %21, i1 false)
  %22 = and i64 %2, 63
  %.not.i19 = icmp eq i64 %22, 0
  br i1 %.not.i19, label %_ZN6BitMap23clear_range_within_wordEmm.exit23, label %23

23:                                               ; preds = %_ZN6BitMap20clear_range_of_wordsEmm.exit
  %.neg.i.i = shl nsw i64 -1, %22
  %24 = load ptr, ptr %0, align 8
  %25 = getelementptr inbounds i64, ptr %24, i64 %6
  br label %_ZN6BitMap23clear_range_within_wordEmm.exit23.sink.split

26:                                               ; preds = %3
  %27 = tail call noundef i64 @llvm.umin.i64(i64 %8, i64 %2)
  %.not.i24 = icmp eq i64 %27, %1
  br i1 %.not.i24, label %_ZN6BitMap23clear_range_within_wordEmm.exit29, label %28

28:                                               ; preds = %26
  %29 = and i64 %1, 63
  %notmask.i.i25 = shl nsw i64 -1, %29
  %30 = xor i64 %notmask.i.i25, -1
  %31 = and i64 %27, 63
  %.not.i.i26 = icmp eq i64 %31, 0
  %.neg.i.i27 = shl nsw i64 -1, %31
  %32 = select i1 %.not.i.i26, i64 0, i64 %.neg.i.i27
  %.0.i.i28 = or i64 %32, %30
  %33 = load ptr, ptr %0, align 8
  %34 = lshr i64 %1, 6
  %35 = getelementptr inbounds i64, ptr %33, i64 %34
  %36 = load i64, ptr %35, align 8
  %37 = and i64 %36, %.0.i.i28
  store i64 %37, ptr %35, align 8
  br label %_ZN6BitMap23clear_range_within_wordEmm.exit29

_ZN6BitMap23clear_range_within_wordEmm.exit29:    ; preds = %26, %28
  %.not.i30.not = icmp ult i64 %8, %2
  br i1 %.not.i30.not, label %38, label %_ZN6BitMap23clear_range_within_wordEmm.exit23

38:                                               ; preds = %_ZN6BitMap23clear_range_within_wordEmm.exit29
  %39 = and i64 %27, 63
  %notmask.i.i31 = shl nsw i64 -1, %39
  %40 = xor i64 %notmask.i.i31, -1
  %41 = and i64 %2, 63
  %.not.i.i32 = icmp eq i64 %41, 0
  %.neg.i.i33 = shl nsw i64 -1, %41
  %42 = select i1 %.not.i.i32, i64 0, i64 %.neg.i.i33
  %.0.i.i34 = or i64 %42, %40
  %43 = load ptr, ptr %0, align 8
  %44 = lshr i64 %27, 6
  %45 = getelementptr inbounds i64, ptr %43, i64 %44
  br label %_ZN6BitMap23clear_range_within_wordEmm.exit23.sink.split

_ZN6BitMap23clear_range_within_wordEmm.exit23.sink.split: ; preds = %23, %38
  %.sink = phi ptr [ %45, %38 ], [ %25, %23 ]
  %.0.i.i34.sink = phi i64 [ %.0.i.i34, %38 ], [ %.neg.i.i, %23 ]
  %46 = load i64, ptr %.sink, align 8
  %47 = and i64 %46, %.0.i.i34.sink
  store i64 %47, ptr %.sink, align 8
  br label %_ZN6BitMap23clear_range_within_wordEmm.exit23

_ZN6BitMap23clear_range_within_wordEmm.exit23:    ; preds = %_ZN6BitMap23clear_range_within_wordEmm.exit23.sink.split, %_ZN6BitMap23clear_range_within_wordEmm.exit29, %_ZN6BitMap20clear_range_of_wordsEmm.exit
  ret void
}